; Function Attrs: nounwind uwtable
define ptr @l_Array_mapMUnsafe_map___at_Lean_Compiler_LCNF_ToLCNF_toLCNF_visitAlt___spec__1___lambda__1___boxed(ptr noundef %0, ptr noundef %1, ptr noundef %2, ptr noundef %3, ptr noundef %4, ptr noundef %5, ptr noundef %6, ptr noundef %7) local_unnamed_addr #1 {
  %9 = tail call ptr @l_Array_mapMUnsafe_map___at_Lean_Compiler_LCNF_ToLCNF_toLCNF_visitAlt___spec__1___lambda__1(ptr noundef %0, ptr poison, ptr noundef %2, ptr noundef %3, ptr noundef %4, ptr noundef %5, ptr noundef %6, ptr noundef %7)
  %10 = ptrtoint ptr %6 to i64
  %11 = and i64 %10, 1
  %.not = icmp eq i64 %11, 0
  br i1 %.not, label %12, label %lean_dec.exit19

12:                                               ; preds = %8
  %13 = load i32, ptr %6, align 4, !tbaa !4
  %14 = icmp sgt i32 %13, 1
  br i1 %14, label %15, label %17, !prof !11

15:                                               ; preds = %12
  %16 = add nsw i32 %13, -1
  store i32 %16, ptr %6, align 4, !tbaa !4
  br label %lean_dec.exit19

17:                                               ; preds = %12
  %.not.i = icmp eq i32 %13, 0
  br i1 %.not.i, label %lean_dec.exit19, label %18

18:                                               ; preds = %17
  tail call void @lean_dec_ref_cold(ptr noundef nonnull %6) #5
  br label %lean_dec.exit19

lean_dec.exit19:                                  ; preds = %18, %17, %15, %8
  %19 = ptrtoint ptr %5 to i64
  %20 = and i64 %19, 1
  %.not30 = icmp eq i64 %20, 0
  br i1 %.not30, label %21, label %lean_dec.exit18

21:                                               ; preds = %lean_dec.exit19
  %22 = load i32, ptr %5, align 4, !tbaa !4
  %23 = icmp sgt i32 %22, 1
  br i1 %23, label %24, label %26, !prof !11

24:                                               ; preds = %21
  %25 = add nsw i32 %22, -1
  store i32 %25, ptr %5, align 4, !tbaa !4
  br label %lean_dec.exit18

26:                                               ; preds = %21
  %.not.i20 = icmp eq i32 %22, 0
  br i1 %.not.i20, label %lean_dec.exit18, label %27

27:                                               ; preds = %26
  tail call void @lean_dec_ref_cold(ptr noundef nonnull %5) #5
  br label %lean_dec.exit18

lean_dec.exit18:                                  ; preds = %27, %26, %24, %lean_dec.exit19
  %28 = ptrtoint ptr %4 to i64
  %29 = and i64 %28, 1
  %.not31 = icmp eq i64 %29, 0
  br i1 %.not31, label %30, label %lean_dec.exit17

30:                                               ; preds = %lean_dec.exit18
  %31 = load i32, ptr %4, align 4, !tbaa !4
  %32 = icmp sgt i32 %31, 1
  br i1 %32, label %33, label %35, !prof !11

33:                                               ; preds = %30
  %34 = add nsw i32 %31, -1
  store i32 %34, ptr %4, align 4, !tbaa !4
  br label %lean_dec.exit17

35:                                               ; preds = %30
  %.not.i22 = icmp eq i32 %31, 0
  br i1 %.not.i22, label %lean_dec.exit17, label %36

36:                                               ; preds = %35
  tail call void @lean_dec_ref_cold(ptr noundef nonnull %4) #5
  br label %lean_dec.exit17

lean_dec.exit17:                                  ; preds = %36, %35, %33, %lean_dec.exit18
  %37 = ptrtoint ptr %3 to i64
  %38 = and i64 %37, 1
  %.not32 = icmp eq i64 %38, 0
  br i1 %.not32, label %39, label %lean_dec.exit16

39:                                               ; preds = %lean_dec.exit17
  %40 = load i32, ptr %3, align 4, !tbaa !4
  %41 = icmp sgt i32 %40, 1
  br i1 %41, label %42, label %44, !prof !11

42:                                               ; preds = %39
  %43 = add nsw i32 %40, -1
  store i32 %43, ptr %3, align 4, !tbaa !4
  br label %lean_dec.exit16

44:                                               ; preds = %39
  %.not.i24 = icmp eq i32 %40, 0
  br i1 %.not.i24, label %lean_dec.exit16, label %45

45:                                               ; preds = %44
  tail call void @lean_dec_ref_cold(ptr noundef nonnull %3) #5
  br label %lean_dec.exit16

lean_dec.exit16:                                  ; preds = %45, %44, %42, %lean_dec.exit17
  %46 = ptrtoint ptr %2 to i64
  %47 = and i64 %46, 1
  %.not33 = icmp eq i64 %47, 0
  br i1 %.not33, label %48, label %lean_dec.exit15

48:                                               ; preds = %lean_dec.exit16
  %49 = load i32, ptr %2, align 4, !tbaa !4
  %50 = icmp sgt i32 %49, 1
  br i1 %50, label %51, label %53, !prof !11

51:                                               ; preds = %48
  %52 = add nsw i32 %49, -1
  store i32 %52, ptr %2, align 4, !tbaa !4
  br label %lean_dec.exit15

53:                                               ; preds = %48
  %.not.i26 = icmp eq i32 %49, 0
  br i1 %.not.i26, label %lean_dec.exit15, label %54

54:                                               ; preds = %53
  tail call void @lean_dec_ref_cold(ptr noundef nonnull %2) #5
  br label %lean_dec.exit15

lean_dec.exit15:                                  ; preds = %54, %53, %51, %lean_dec.exit16
  %55 = ptrtoint ptr %1 to i64
  %56 = and i64 %55, 1
  %.not34 = icmp eq i64 %56, 0
  br i1 %.not34, label %57, label %lean_dec.exit

57:                                               ; preds = %lean_dec.exit15
  %58 = load i32, ptr %1, align 4, !tbaa !4
  %59 = icmp sgt i32 %58, 1
  br i1 %59, label %60, label %62, !prof !11

60:                                               ; preds = %57
  %61 = add nsw i32 %58, -1
  store i32 %61, ptr %1, align 4, !tbaa !4
  br label %lean_dec.exit

62:                                               ; preds = %57
  %.not.i28 = icmp eq i32 %58, 0
  br i1 %.not.i28, label %lean_dec.exit, label %63

63:                                               ; preds = %62
  tail call void @lean_dec_ref_cold(ptr noundef nonnull %1) #5
  br label %lean_dec.exit

lean_dec.exit:                                    ; preds = %63, %62, %60, %lean_dec.exit15
  ret ptr %9
}